; Function Attrs: mustprogress uwtable
define void @_ZNK6casadi8SparsitymlERKS0_(ptr dead_on_unwind noalias writable sret(%"class.casadi::Sparsity") align 8 %0, ptr noundef nonnull align 8 dereferenceable(8) %1, ptr noundef nonnull align 8 dereferenceable(8) %2) local_unnamed_addr #3 align 2 personality ptr @__gxx_personality_v0 {
  %4 = alloca %"class.std::vector.10", align 8
  call void @llvm.memset.p0.i64(ptr noundef nonnull align 8 dereferenceable(24) %4, i8 0, i64 24, i1 false)
  %5 = invoke noundef ptr @_ZNK6casadi12SharedObjectptEv(ptr noundef nonnull align 8 dereferenceable(8) %1)
          to label %.noexc unwind label %8

.noexc:                                           ; preds = %3
  invoke void @_ZNK6casadi16SparsityInternal7combineERKNS_8SparsityEbbRSt6vectorIhSaIhEE(ptr dead_on_unwind writable sret(%"class.casadi::Sparsity") align 8 %0, ptr noundef nonnull align 8 dereferenceable(56) %5, ptr noundef nonnull align 8 dereferenceable(8) %2, i1 noundef zeroext true, i1 noundef zeroext true, ptr noundef nonnull align 8 dereferenceable(24) %4)
          to label %_ZNK6casadi8Sparsity9intersectERKS0_RSt6vectorIhSaIhEE.exit unwind label %8

_ZNK6casadi8Sparsity9intersectERKS0_RSt6vectorIhSaIhEE.exit: ; preds = %.noexc
  %6 = load ptr, ptr %4, align 8
  %.not.i.i.i = icmp eq ptr %6, null
  br i1 %.not.i.i.i, label %_ZNSt6vectorIhSaIhEED2Ev.exit, label %7

7:                                                ; preds = %_ZNK6casadi8Sparsity9intersectERKS0_RSt6vectorIhSaIhEE.exit
  call void @_ZdlPv(ptr noundef nonnull %6) #26
  br label %_ZNSt6vectorIhSaIhEED2Ev.exit

_ZNSt6vectorIhSaIhEED2Ev.exit:                    ; preds = %_ZNK6casadi8Sparsity9intersectERKS0_RSt6vectorIhSaIhEE.exit, %7
  ret void

8:                                                ; preds = %.noexc, %3
  %9 = landingpad { ptr, i32 }
          cleanup
  %10 = load ptr, ptr %4, align 8
  %.not.i.i.i4 = icmp eq ptr %10, null
  br i1 %.not.i.i.i4, label %_ZNSt6vectorIhSaIhEED2Ev.exit5, label %11

11:                                               ; preds = %8
  call void @_ZdlPv(ptr noundef nonnull %10) #26
  br label %_ZNSt6vectorIhSaIhEED2Ev.exit5

_ZNSt6vectorIhSaIhEED2Ev.exit5:                   ; preds = %8, %11
  resume { ptr, i32 } %9
}